target datalayout = "e-m:e-p270:32:32-p271:32:32-p272:64:64-i64:64-i128:128-f80:128-n8:16:32:64-S128"
target triple = "x86_64-pc-linux-gnu"

%"class.std::vector" = type { %"struct.std::_Vector_base" }
%"struct.std::_Vector_base" = type { %"struct.std::_Vector_base<std::__cxx11::basic_string<char>, std::allocator<std::__cxx11::basic_string<char>>>::_Vector_impl" }
%"struct.std::_Vector_base<std::__cxx11::basic_string<char>, std::allocator<std::__cxx11::basic_string<char>>>::_Vector_impl" = type { %"struct.std::_Vector_base<std::__cxx11::basic_string<char>, std::allocator<std::__cxx11::basic_string<char>>>::_Vector_impl_data" }
%"struct.std::_Vector_base<std::__cxx11::basic_string<char>, std::allocator<std::__cxx11::basic_string<char>>>::_Vector_impl_data" = type { ptr, ptr, ptr }
%"class.std::__cxx11::basic_string" = type { %"struct.std::__cxx11::basic_string<char>::_Alloc_hider", i64, %union.anon }
%"struct.std::__cxx11::basic_string<char>::_Alloc_hider" = type { ptr }
%union.anon = type { i64, [8 x i8] }
%"class.cvc5::internal::options::OptionsHandler" = type { ptr }
%"struct.cvc5::internal::options::HolderBASE" = type <{ %"class.cvc5::internal::ManagedErr", i8, [7 x i8], %"class.cvc5::internal::ManagedIn", i8, i8, i8, i8, i32, i8, [7 x i8], %"class.cvc5::internal::ManagedOut", i8, i8, i8, i8, i8, i8, i8, i8, i8, [7 x i8], i64, i8, [7 x i8], i64, i8, i8, i8, i8, i8, i8, i8, i8, i8, i8, i8, [5 x i8], i64, i8, [7 x i8], i64, i8, [7 x i8], i64, i8, [7 x i8], %"class.std::bitset", i8, [7 x i8], %"class.std::vector", i8, [7 x i8] }>
%"class.cvc5::internal::ManagedErr" = type { %"class.cvc5::internal::ManagedStream" }
%"class.cvc5::internal::ManagedStream" = type { ptr, ptr, %"class.std::shared_ptr", %"class.std::__cxx11::basic_string" }
%"class.std::shared_ptr" = type { %"class.std::__shared_ptr" }
%"class.std::__shared_ptr" = type { ptr, %"class.std::__shared_count" }
%"class.std::__shared_count" = type { ptr }
%"class.cvc5::internal::ManagedIn" = type { %"class.cvc5::internal::ManagedStream.208" }
%"class.cvc5::internal::ManagedStream.208" = type { ptr, ptr, %"class.std::shared_ptr.209", %"class.std::__cxx11::basic_string" }
%"class.std::shared_ptr.209" = type { %"class.std::__shared_ptr.210" }
%"class.std::__shared_ptr.210" = type { ptr, %"class.std::__shared_count" }
%"class.cvc5::internal::ManagedOut" = type { %"class.cvc5::internal::ManagedStream" }
%"class.std::bitset" = type { %"struct.std::_Base_bitset" }
%"struct.std::_Base_bitset" = type { i64 }

; Function Attrs: mustprogress uwtable
define hidden void @_ZN4cvc58internal7options14OptionsHandler8setStatsERKNSt7__cxx1112basic_stringIcSt11char_traitsIcESaIcEEEb(ptr noundef nonnull align 8 dereferenceable(8) %0, ptr noundef nonnull align 8 dereferenceable(32) %1, i1 noundef zeroext %2) #5 align 2 {
  %4 = alloca ptr, align 8
  %5 = alloca ptr, align 8
  %6 = alloca i8, align 1
  store ptr %0, ptr %4, align 8, !tbaa !3
  store ptr %1, ptr %5, align 8, !tbaa !12
  %7 = zext i1 %2 to i8
  store i8 %7, ptr %6, align 1, !tbaa !238
  %8 = load ptr, ptr %4, align 8
  %9 = load i8, ptr %6, align 1, !tbaa !238, !range !240, !noundef !241
  %10 = trunc i8 %9 to i1
  br i1 %10, label %24, label %11

11:                                               ; preds = %3
  %12 = getelementptr inbounds nuw %"class.cvc5::internal::options::OptionsHandler", ptr %8, i32 0, i32 0
  %13 = load ptr, ptr %12, align 8, !tbaa !10
  %14 = call noundef nonnull align 8 dereferenceable(361) ptr @_ZN4cvc58internal7Options10write_baseEv(ptr noundef nonnull align 8 dereferenceable(408) %13)
  %15 = getelementptr inbounds nuw %"struct.cvc5::internal::options::HolderBASE", ptr %14, i32 0, i32 31
  store i8 0, ptr %15, align 1, !tbaa !272
  %16 = getelementptr inbounds nuw %"class.cvc5::internal::options::OptionsHandler", ptr %8, i32 0, i32 0
  %17 = load ptr, ptr %16, align 8, !tbaa !10
  %18 = call noundef nonnull align 8 dereferenceable(361) ptr @_ZN4cvc58internal7Options10write_baseEv(ptr noundef nonnull align 8 dereferenceable(408) %17)
  %19 = getelementptr inbounds nuw %"struct.cvc5::internal::options::HolderBASE", ptr %18, i32 0, i32 33
  store i8 0, ptr %19, align 1, !tbaa !273
  %20 = getelementptr inbounds nuw %"class.cvc5::internal::options::OptionsHandler", ptr %8, i32 0, i32 0
  %21 = load ptr, ptr %20, align 8, !tbaa !10
  %22 = call noundef nonnull align 8 dereferenceable(361) ptr @_ZN4cvc58internal7Options10write_baseEv(ptr noundef nonnull align 8 dereferenceable(408) %21)
  %23 = getelementptr inbounds nuw %"struct.cvc5::internal::options::HolderBASE", ptr %22, i32 0, i32 35
  store i8 0, ptr %23, align 1, !tbaa !274
  br label %24

24:                                               ; preds = %11, %3
  ret void
}