; Function Attrs: mustprogress uwtable
define hidden void @_ZN4cvc58internal7options14OptionsHandler8setStatsERKNSt7__cxx1112basic_stringIcSt11char_traitsIcESaIcEEEb(ptr noundef nonnull readonly align 8 captures(none) dereferenceable(8) %0, ptr noundef nonnull readnone align 8 captures(none) dereferenceable(32) %1, i1 noundef zeroext %2) local_unnamed_addr #5 align 2 {
  br i1 %2, label %14, label %4

4:                                                ; preds = %3
  %5 = load ptr, ptr %0, align 8, !tbaa !3
  %6 = tail call noundef nonnull align 8 dereferenceable(361) ptr @_ZN4cvc58internal7Options10write_baseEv(ptr noundef nonnull align 8 dereferenceable(408) %5)
  %7 = getelementptr inbounds nuw i8, ptr %6, i64 261
  store i8 0, ptr %7, align 1, !tbaa !249
  %8 = load ptr, ptr %0, align 8, !tbaa !3
  %9 = tail call noundef nonnull align 8 dereferenceable(361) ptr @_ZN4cvc58internal7Options10write_baseEv(ptr noundef nonnull align 8 dereferenceable(408) %8)
  %10 = getelementptr inbounds nuw i8, ptr %9, i64 263
  store i8 0, ptr %10, align 1, !tbaa !250
  %11 = load ptr, ptr %0, align 8, !tbaa !3
  %12 = tail call noundef nonnull align 8 dereferenceable(361) ptr @_ZN4cvc58internal7Options10write_baseEv(ptr noundef nonnull align 8 dereferenceable(408) %11)
  %13 = getelementptr inbounds nuw i8, ptr %12, i64 265
  store i8 0, ptr %13, align 1, !tbaa !251
  br label %14

14:                                               ; preds = %4, %3
  ret void
}